target datalayout = "e-m:e-p270:32:32-p271:32:32-p272:64:64-i64:64-i128:128-f80:128-n8:16:32:64-S128"
target triple = "x86_64-pc-linux-gnu"

%struct.Texture = type { i32, i32, i32, i32, i32 }
%struct.Rectangle = type { float, float, float, float }
%struct.Color = type { i8, i8, i8, i8 }
%struct.Vector2 = type { float, float }

@texShapes = internal global %struct.Texture { i32 1, i32 1, i32 1, i32 1, i32 7 }, align 4
@texShapesRec = internal global %struct.Rectangle { float 0.000000e+00, float 0.000000e+00, float 1.000000e+00, float 1.000000e+00 }, align 4

; Function Attrs: nounwind uwtable
define { <2 x float>, <2 x float> } @GetShapesTextureRectangle() #2 {
  %1 = alloca %struct.Rectangle, align 4
  call void @llvm.memcpy.p0.p0.i64(ptr align 4 %1, ptr align 4 @texShapesRec, i64 16, i1 false)
  %2 = load { <2 x float>, <2 x float> }, ptr %1, align 4
  ret { <2 x float>, <2 x float> } %2
}

; Function Attrs: nounwind uwtable
define void @GetShapesTexture(ptr dead_on_unwind noalias writable sret(%struct.Texture) align 4 %0) #2 {
  call void @llvm.memcpy.p0.p0.i64(ptr align 4 %0, ptr align 4 @texShapes, i64 20, i1 false)
  ret void
}

; Function Attrs: nounwind uwtable
define void @DrawRing(<2 x float> %0, float noundef %1, float noundef %2, float noundef %3, float noundef %4, i32 noundef %5, i32 %6) #0 {
  %8 = alloca %struct.Vector2, align 4
  %9 = alloca %struct.Color, align 1
  %10 = alloca float, align 4
  %11 = alloca float, align 4
  %12 = alloca float, align 4
  %13 = alloca float, align 4
  %14 = alloca i32, align 4
  %15 = alloca float, align 4
  %16 = alloca float, align 4
  %17 = alloca i32, align 4
  %18 = alloca float, align 4
  %19 = alloca i32, align 4
  %20 = alloca float, align 4
  %21 = alloca float, align 4
  %22 = alloca %struct.Texture, align 4
  %23 = alloca %struct.Rectangle, align 4
  %24 = alloca i32, align 4
  store <2 x float> %0, ptr %8, align 4
  store i32 %6, ptr %9, align 1
  store float %1, ptr %10, align 4
  store float %2, ptr %11, align 4
  store float %3, ptr %12, align 4
  store float %4, ptr %13, align 4
  store i32 %5, ptr %14, align 4
  %25 = load float, ptr %12, align 4
  %26 = load float, ptr %13, align 4
  %27 = fcmp oeq float %25, %26
  br i1 %27, label %28, label %29

28:                                               ; preds = %7
  br label %244

29:                                               ; preds = %7
  %30 = load float, ptr %11, align 4
  %31 = load float, ptr %10, align 4
  %32 = fcmp olt float %30, %31
  br i1 %32, label %33, label %41

33:                                               ; preds = %29
  call void @llvm.lifetime.start.p0(i64 4, ptr %15) #8
  %34 = load float, ptr %11, align 4
  store float %34, ptr %15, align 4
  %35 = load float, ptr %10, align 4
  store float %35, ptr %11, align 4
  %36 = load float, ptr %15, align 4
  store float %36, ptr %10, align 4
  %37 = load float, ptr %11, align 4
  %38 = fcmp ole float %37, 0.000000e+00
  br i1 %38, label %39, label %40

39:                                               ; preds = %33
  store float 0x3FB99999A0000000, ptr %11, align 4
  br label %40

40:                                               ; preds = %39, %33
  call void @llvm.lifetime.end.p0(i64 4, ptr %15) #8
  br label %41

41:                                               ; preds = %40, %29
  %42 = load float, ptr %13, align 4
  %43 = load float, ptr %12, align 4
  %44 = fcmp olt float %42, %43
  br i1 %44, label %45, label %49

45:                                               ; preds = %41
  call void @llvm.lifetime.start.p0(i64 4, ptr %16) #8
  %46 = load float, ptr %12, align 4
  store float %46, ptr %16, align 4
  %47 = load float, ptr %13, align 4
  store float %47, ptr %12, align 4
  %48 = load float, ptr %16, align 4
  store float %48, ptr %13, align 4
  call void @llvm.lifetime.end.p0(i64 4, ptr %16) #8
  br label %49

49:                                               ; preds = %45, %41
  call void @llvm.lifetime.start.p0(i64 4, ptr %17) #8
  %50 = load float, ptr %13, align 4
  %51 = load float, ptr %12, align 4
  %52 = fsub float %50, %51
  %53 = fdiv float %52, 9.000000e+01
  %54 = call float @llvm.ceil.f32(float %53)
  %55 = fptosi float %54 to i32
  store i32 %55, ptr %17, align 4
  %56 = load i32, ptr %14, align 4
  %57 = load i32, ptr %17, align 4
  %58 = icmp slt i32 %56, %57
  br i1 %58, label %59, label %80

59:                                               ; preds = %49
  call void @llvm.lifetime.start.p0(i64 4, ptr %18) #8
  %60 = load float, ptr %11, align 4
  %61 = fdiv float 5.000000e-01, %60
  %62 = fsub float 1.000000e+00, %61
  %63 = call float @powf(float noundef %62, float noundef 2.000000e+00) #8
  %64 = call float @llvm.fmuladd.f32(float 2.000000e+00, float %63, float -1.000000e+00)
  %65 = call float @acosf(float noundef %64) #8
  store float %65, ptr %18, align 4
  %66 = load float, ptr %13, align 4
  %67 = load float, ptr %12, align 4
  %68 = fsub float %66, %67
  %69 = load float, ptr %18, align 4
  %70 = fdiv float 0x401921FB60000000, %69
  %71 = call float @llvm.ceil.f32(float %70)
  %72 = fmul float %68, %71
  %73 = fdiv float %72, 3.600000e+02
  %74 = fptosi float %73 to i32
  store i32 %74, ptr %14, align 4
  %75 = load i32, ptr %14, align 4
  %76 = icmp sle i32 %75, 0
  br i1 %76, label %77, label %79

77:                                               ; preds = %59
  %78 = load i32, ptr %17, align 4
  store i32 %78, ptr %14, align 4
  br label %79

79:                                               ; preds = %77, %59
  call void @llvm.lifetime.end.p0(i64 4, ptr %18) #8
  br label %80

80:                                               ; preds = %79, %49
  %81 = load float, ptr %10, align 4
  %82 = fcmp ole float %81, 0.000000e+00
  br i1 %82, label %83, label %90

83:                                               ; preds = %80
  %84 = load float, ptr %11, align 4
  %85 = load float, ptr %12, align 4
  %86 = load float, ptr %13, align 4
  %87 = load i32, ptr %14, align 4
  %88 = load <2 x float>, ptr %8, align 4
  %89 = load i32, ptr %9, align 1
  call void @DrawCircleSector(<2 x float> %88, float noundef %84, float noundef %85, float noundef %86, i32 noundef %87, i32 %89)
  store i32 1, ptr %19, align 4
  br label %242

90:                                               ; preds = %80
  call void @llvm.lifetime.start.p0(i64 4, ptr %20) #8
  %91 = load float, ptr %13, align 4
  %92 = load float, ptr %12, align 4
  %93 = fsub float %91, %92
  %94 = load i32, ptr %14, align 4
  %95 = sitofp i32 %94 to float
  %96 = fdiv float %93, %95
  store float %96, ptr %20, align 4
  call void @llvm.lifetime.start.p0(i64 4, ptr %21) #8
  %97 = load float, ptr %12, align 4
  store float %97, ptr %21, align 4
  call void @GetShapesTexture(ptr dead_on_unwind writable sret(%struct.Texture) align 4 %22)
  %98 = getelementptr inbounds nuw %struct.Texture, ptr %22, i32 0, i32 0
  %99 = load i32, ptr %98, align 4
  call void @rlSetTexture(i32 noundef %99)
  call void @llvm.lifetime.start.p0(i64 16, ptr %23) #8
  %100 = call { <2 x float>, <2 x float> } @GetShapesTextureRectangle()
  %101 = getelementptr inbounds nuw { <2 x float>, <2 x float> }, ptr %23, i32 0, i32 0
  %102 = extractvalue { <2 x float>, <2 x float> } %100, 0
  store <2 x float> %102, ptr %101, align 4
  %103 = getelementptr inbounds nuw { <2 x float>, <2 x float> }, ptr %23, i32 0, i32 1
  %104 = extractvalue { <2 x float>, <2 x float> } %100, 1
  store <2 x float> %104, ptr %103, align 4
  call void @rlBegin(i32 noundef 7)
  call void @llvm.lifetime.start.p0(i64 4, ptr %24) #8
  store i32 0, ptr %24, align 4
  br label %105

105:                                              ; preds = %238, %90
  %106 = load i32, ptr %24, align 4
  %107 = load i32, ptr %14, align 4
  %108 = icmp slt i32 %106, %107
  br i1 %108, label %110, label %109

109:                                              ; preds = %105
  store i32 2, ptr %19, align 4
  call void @llvm.lifetime.end.p0(i64 4, ptr %24) #8
  br label %241

110:                                              ; preds = %105
  %111 = getelementptr inbounds nuw %struct.Color, ptr %9, i32 0, i32 0
  %112 = load i8, ptr %111, align 1
  %113 = getelementptr inbounds nuw %struct.Color, ptr %9, i32 0, i32 1
  %114 = load i8, ptr %113, align 1
  %115 = getelementptr inbounds nuw %struct.Color, ptr %9, i32 0, i32 2
  %116 = load i8, ptr %115, align 1
  %117 = getelementptr inbounds nuw %struct.Color, ptr %9, i32 0, i32 3
  %118 = load i8, ptr %117, align 1
  call void @rlColor4ub(i8 noundef zeroext %112, i8 noundef zeroext %114, i8 noundef zeroext %116, i8 noundef zeroext %118)
  %119 = getelementptr inbounds nuw %struct.Rectangle, ptr %23, i32 0, i32 0
  %120 = load float, ptr %119, align 4
  %121 = load i32, ptr getelementptr inbounds nuw (%struct.Texture, ptr @texShapes, i32 0, i32 1), align 4
  %122 = sitofp i32 %121 to float
  %123 = fdiv float %120, %122
  %124 = getelementptr inbounds nuw %struct.Rectangle, ptr %23, i32 0, i32 1
  %125 = load float, ptr %124, align 4
  %126 = getelementptr inbounds nuw %struct.Rectangle, ptr %23, i32 0, i32 3
  %127 = load float, ptr %126, align 4
  %128 = fadd float %125, %127
  %129 = load i32, ptr getelementptr inbounds nuw (%struct.Texture, ptr @texShapes, i32 0, i32 2), align 4
  %130 = sitofp i32 %129 to float
  %131 = fdiv float %128, %130
  call void @rlTexCoord2f(float noundef %123, float noundef %131)
  %132 = getelementptr inbounds nuw %struct.Vector2, ptr %8, i32 0, i32 0
  %133 = load float, ptr %132, align 4
  %134 = load float, ptr %21, align 4
  %135 = fmul float 0x3F91DF46A0000000, %134
  %136 = call float @cosf(float noundef %135) #8
  %137 = load float, ptr %11, align 4
  %138 = call float @llvm.fmuladd.f32(float %136, float %137, float %133)
  %139 = getelementptr inbounds nuw %struct.Vector2, ptr %8, i32 0, i32 1
  %140 = load float, ptr %139, align 4
  %141 = load float, ptr %21, align 4
  %142 = fmul float 0x3F91DF46A0000000, %141
  %143 = call float @sinf(float noundef %142) #8
  %144 = load float, ptr %11, align 4
  %145 = call float @llvm.fmuladd.f32(float %143, float %144, float %140)
  call void @rlVertex2f(float noundef %138, float noundef %145)
  %146 = getelementptr inbounds nuw %struct.Rectangle, ptr %23, i32 0, i32 0
  %147 = load float, ptr %146, align 4
  %148 = load i32, ptr getelementptr inbounds nuw (%struct.Texture, ptr @texShapes, i32 0, i32 1), align 4
  %149 = sitofp i32 %148 to float
  %150 = fdiv float %147, %149
  %151 = getelementptr inbounds nuw %struct.Rectangle, ptr %23, i32 0, i32 1
  %152 = load float, ptr %151, align 4
  %153 = load i32, ptr getelementptr inbounds nuw (%struct.Texture, ptr @texShapes, i32 0, i32 2), align 4
  %154 = sitofp i32 %153 to float
  %155 = fdiv float %152, %154
  call void @rlTexCoord2f(float noundef %150, float noundef %155)
  %156 = getelementptr inbounds nuw %struct.Vector2, ptr %8, i32 0, i32 0
  %157 = load float, ptr %156, align 4
  %158 = load float, ptr %21, align 4
  %159 = fmul float 0x3F91DF46A0000000, %158
  %160 = call float @cosf(float noundef %159) #8
  %161 = load float, ptr %10, align 4
  %162 = call float @llvm.fmuladd.f32(float %160, float %161, float %157)
  %163 = getelementptr inbounds nuw %struct.Vector2, ptr %8, i32 0, i32 1
  %164 = load float, ptr %163, align 4
  %165 = load float, ptr %21, align 4
  %166 = fmul float 0x3F91DF46A0000000, %165
  %167 = call float @sinf(float noundef %166) #8
  %168 = load float, ptr %10, align 4
  %169 = call float @llvm.fmuladd.f32(float %167, float %168, float %164)
  call void @rlVertex2f(float noundef %162, float noundef %169)
  %170 = getelementptr inbounds nuw %struct.Rectangle, ptr %23, i32 0, i32 0
  %171 = load float, ptr %170, align 4
  %172 = getelementptr inbounds nuw %struct.Rectangle, ptr %23, i32 0, i32 2
  %173 = load float, ptr %172, align 4
  %174 = fadd float %171, %173
  %175 = load i32, ptr getelementptr inbounds nuw (%struct.Texture, ptr @texShapes, i32 0, i32 1), align 4
  %176 = sitofp i32 %175 to float
  %177 = fdiv float %174, %176
  %178 = getelementptr inbounds nuw %struct.Rectangle, ptr %23, i32 0, i32 1
  %179 = load float, ptr %178, align 4
  %180 = load i32, ptr getelementptr inbounds nuw (%struct.Texture, ptr @texShapes, i32 0, i32 2), align 4
  %181 = sitofp i32 %180 to float
  %182 = fdiv float %179, %181
  call void @rlTexCoord2f(float noundef %177, float noundef %182)
  %183 = getelementptr inbounds nuw %struct.Vector2, ptr %8, i32 0, i32 0
  %184 = load float, ptr %183, align 4
  %185 = load float, ptr %21, align 4
  %186 = load float, ptr %20, align 4
  %187 = fadd float %185, %186
  %188 = fmul float 0x3F91DF46A0000000, %187
  %189 = call float @cosf(float noundef %188) #8
  %190 = load float, ptr %10, align 4
  %191 = call float @llvm.fmuladd.f32(float %189, float %190, float %184)
  %192 = getelementptr inbounds nuw %struct.Vector2, ptr %8, i32 0, i32 1
  %193 = load float, ptr %192, align 4
  %194 = load float, ptr %21, align 4
  %195 = load float, ptr %20, align 4
  %196 = fadd float %194, %195
  %197 = fmul float 0x3F91DF46A0000000, %196
  %198 = call float @sinf(float noundef %197) #8
  %199 = load float, ptr %10, align 4
  %200 = call float @llvm.fmuladd.f32(float %198, float %199, float %193)
  call void @rlVertex2f(float noundef %191, float noundef %200)
  %201 = getelementptr inbounds nuw %struct.Rectangle, ptr %23, i32 0, i32 0
  %202 = load float, ptr %201, align 4
  %203 = getelementptr inbounds nuw %struct.Rectangle, ptr %23, i32 0, i32 2
  %204 = load float, ptr %203, align 4
  %205 = fadd float %202, %204
  %206 = load i32, ptr getelementptr inbounds nuw (%struct.Texture, ptr @texShapes, i32 0, i32 1), align 4
  %207 = sitofp i32 %206 to float
  %208 = fdiv float %205, %207
  %209 = getelementptr inbounds nuw %struct.Rectangle, ptr %23, i32 0, i32 1
  %210 = load float, ptr %209, align 4
  %211 = getelementptr inbounds nuw %struct.Rectangle, ptr %23, i32 0, i32 3
  %212 = load float, ptr %211, align 4
  %213 = fadd float %210, %212
  %214 = load i32, ptr getelementptr inbounds nuw (%struct.Texture, ptr @texShapes, i32 0, i32 2), align 4
  %215 = sitofp i32 %214 to float
  %216 = fdiv float %213, %215
  call void @rlTexCoord2f(float noundef %208, float noundef %216)
  %217 = getelementptr inbounds nuw %struct.Vector2, ptr %8, i32 0, i32 0
  %218 = load float, ptr %217, align 4
  %219 = load float, ptr %21, align 4
  %220 = load float, ptr %20, align 4
  %221 = fadd float %219, %220
  %222 = fmul float 0x3F91DF46A0000000, %221
  %223 = call float @cosf(float noundef %222) #8
  %224 = load float, ptr %11, align 4
  %225 = call float @llvm.fmuladd.f32(float %223, float %224, float %218)
  %226 = getelementptr inbounds nuw %struct.Vector2, ptr %8, i32 0, i32 1
  %227 = load float, ptr %226, align 4
  %228 = load float, ptr %21, align 4
  %229 = load float, ptr %20, align 4
  %230 = fadd float %228, %229
  %231 = fmul float 0x3F91DF46A0000000, %230
  %232 = call float @sinf(float noundef %231) #8
  %233 = load float, ptr %11, align 4
  %234 = call float @llvm.fmuladd.f32(float %232, float %233, float %227)
  call void @rlVertex2f(float noundef %225, float noundef %234)
  %235 = load float, ptr %20, align 4
  %236 = load float, ptr %21, align 4
  %237 = fadd float %236, %235
  store float %237, ptr %21, align 4
  br label %238

238:                                              ; preds = %110
  %239 = load i32, ptr %24, align 4
  %240 = add nsw i32 %239, 1
  store i32 %240, ptr %24, align 4
  br label %105

241:                                              ; preds = %109
  call void @rlEnd()
  call void @rlSetTexture(i32 noundef 0)
  call void @llvm.lifetime.end.p0(i64 16, ptr %23) #8
  call void @llvm.lifetime.end.p0(i64 4, ptr %21) #8
  call void @llvm.lifetime.end.p0(i64 4, ptr %20) #8
  store i32 0, ptr %19, align 4
  br label %242

242:                                              ; preds = %241, %83
  call void @llvm.lifetime.end.p0(i64 4, ptr %17) #8
  %243 = load i32, ptr %19, align 4
  switch i32 %243, label %245 [
    i32 0, label %244
    i32 1, label %244
  ]

244:                                              ; preds = %28, %242, %242
  ret void

245:                                              ; preds = %242
  unreachable
}