; Function Attrs: nounwind uwtable
define void @DrawRing(<2 x float> %0, float noundef %1, float noundef %2, float noundef %3, float noundef %4, i32 noundef %5, i32 %6) local_unnamed_addr #4 {
  %.sroa.072.0.extract.trunc = trunc i32 %6 to i8
  %.sroa.3.0.extract.shift = lshr i32 %6, 8
  %.sroa.3.0.extract.trunc = trunc i32 %.sroa.3.0.extract.shift to i8
  %.sroa.4.0.extract.shift = lshr i32 %6, 16
  %.sroa.4.0.extract.trunc = trunc i32 %.sroa.4.0.extract.shift to i8
  %.sroa.5.0.extract.shift = lshr i32 %6, 24
  %.sroa.5.0.extract.trunc = trunc nuw i32 %.sroa.5.0.extract.shift to i8
  %8 = fcmp oeq float %3, %4
  br i1 %8, label %85, label %9

9:                                                ; preds = %7
  %10 = fcmp olt float %2, %1
  %11 = fcmp ugt float %1, 0.000000e+00
  %.1 = select i1 %11, float %1, float 0x3FB99999A0000000
  %.089 = select i1 %10, float %.1, float %2
  %.088 = select i1 %10, float %2, float %1
  %12 = fcmp olt float %4, %3
  %.092 = select i1 %12, float %3, float %4
  %.091 = select i1 %12, float %4, float %3
  %13 = fsub float %.092, %.091
  %14 = fdiv float %13, 9.000000e+01
  %15 = tail call float @llvm.ceil.f32(float %14)
  %16 = fptosi float %15 to i32
  %17 = icmp slt i32 %5, %16
  br i1 %17, label %18, label %29

18:                                               ; preds = %9
  %19 = fdiv float 5.000000e-01, %.089
  %20 = fsub float 1.000000e+00, %19
  %square = fmul float %20, %20
  %21 = tail call float @llvm.fmuladd.f32(float %square, float 2.000000e+00, float -1.000000e+00)
  %22 = tail call float @acosf(float noundef %21) #16
  %23 = fdiv float 0x401921FB60000000, %22
  %24 = tail call float @llvm.ceil.f32(float %23)
  %25 = fmul float %13, %24
  %26 = fdiv float %25, 3.600000e+02
  %27 = fptosi float %26 to i32
  %28 = icmp slt i32 %27, 1
  %spec.select = select i1 %28, i32 %16, i32 %27
  br label %29

29:                                               ; preds = %18, %9
  %.093 = phi i32 [ %spec.select, %18 ], [ %5, %9 ]
  %30 = fcmp ugt float %.088, 0.000000e+00
  br i1 %30, label %32, label %31

31:                                               ; preds = %29
  tail call void @DrawCircleSector(<2 x float> %0, float noundef %.089, float noundef %.091, float noundef %.092, i32 noundef %.093, i32 %6)
  br label %85

32:                                               ; preds = %29
  %33 = sitofp i32 %.093 to float
  %34 = fdiv float %13, %33
  %.sroa.0.0.copyload = load i32, ptr @texShapes, align 4
  tail call void @rlSetTexture(i32 noundef %.sroa.0.0.copyload) #16
  %.sroa.0.0.copyload.i = load <2 x float>, ptr @texShapesRec, align 8
  %.sroa.2.0.copyload.i = load <2 x float>, ptr getelementptr inbounds nuw (i8, ptr @texShapesRec, i64 8), align 8
  tail call void @rlBegin(i32 noundef 7) #16
  %35 = icmp sgt i32 %.093, 0
  br i1 %35, label %.lr.ph, label %._crit_edge

.lr.ph:                                           ; preds = %32
  %.sroa.0.0.vec.extract = extractelement <2 x float> %.sroa.0.0.copyload.i, i64 0
  %.sroa.0.4.vec.extract = extractelement <2 x float> %.sroa.0.0.copyload.i, i64 1
  %36 = fadd <2 x float> %.sroa.0.0.copyload.i, %.sroa.2.0.copyload.i
  %37 = extractelement <2 x float> %36, i64 1
  %.sroa.074.0.vec.extract = extractelement <2 x float> %0, i64 0
  %.sroa.074.4.vec.extract = extractelement <2 x float> %0, i64 1
  %38 = fadd <2 x float> %.sroa.0.0.copyload.i, %.sroa.2.0.copyload.i
  %39 = extractelement <2 x float> %38, i64 0
  br label %40

._crit_edge:                                      ; preds = %40, %32
  tail call void @rlEnd() #16
  tail call void @rlSetTexture(i32 noundef 0) #16
  br label %85

40:                                               ; preds = %.lr.ph, %40
  %.0105 = phi i32 [ 0, %.lr.ph ], [ %84, %40 ]
  %.090104 = phi float [ %.091, %.lr.ph ], [ %68, %40 ]
  tail call void @rlColor4ub(i8 noundef zeroext %.sroa.072.0.extract.trunc, i8 noundef zeroext %.sroa.3.0.extract.trunc, i8 noundef zeroext %.sroa.4.0.extract.trunc, i8 noundef zeroext %.sroa.5.0.extract.trunc) #16
  %41 = load i32, ptr getelementptr inbounds nuw (i8, ptr @texShapes, i64 4), align 4
  %42 = sitofp i32 %41 to float
  %43 = fdiv float %.sroa.0.0.vec.extract, %42
  %44 = load i32, ptr getelementptr inbounds nuw (i8, ptr @texShapes, i64 8), align 4
  %45 = sitofp i32 %44 to float
  %46 = fdiv float %37, %45
  tail call void @rlTexCoord2f(float noundef %43, float noundef %46) #16
  %47 = fmul float %.090104, 0x3F91DF46A0000000
  %48 = tail call float @cosf(float noundef %47) #16
  %49 = tail call float @llvm.fmuladd.f32(float %48, float %.089, float %.sroa.074.0.vec.extract)
  %50 = tail call float @sinf(float noundef %47) #16
  %51 = tail call float @llvm.fmuladd.f32(float %50, float %.089, float %.sroa.074.4.vec.extract)
  tail call void @rlVertex2f(float noundef %49, float noundef %51) #16
  %52 = load i32, ptr getelementptr inbounds nuw (i8, ptr @texShapes, i64 4), align 4
  %53 = sitofp i32 %52 to float
  %54 = fdiv float %.sroa.0.0.vec.extract, %53
  %55 = load i32, ptr getelementptr inbounds nuw (i8, ptr @texShapes, i64 8), align 4
  %56 = sitofp i32 %55 to float
  %57 = fdiv float %.sroa.0.4.vec.extract, %56
  tail call void @rlTexCoord2f(float noundef %54, float noundef %57) #16
  %58 = tail call float @cosf(float noundef %47) #16
  %59 = tail call float @llvm.fmuladd.f32(float %58, float %.088, float %.sroa.074.0.vec.extract)
  %60 = tail call float @sinf(float noundef %47) #16
  %61 = tail call float @llvm.fmuladd.f32(float %60, float %.088, float %.sroa.074.4.vec.extract)
  tail call void @rlVertex2f(float noundef %59, float noundef %61) #16
  %62 = load i32, ptr getelementptr inbounds nuw (i8, ptr @texShapes, i64 4), align 4
  %63 = sitofp i32 %62 to float
  %64 = fdiv float %39, %63
  %65 = load i32, ptr getelementptr inbounds nuw (i8, ptr @texShapes, i64 8), align 4
  %66 = sitofp i32 %65 to float
  %67 = fdiv float %.sroa.0.4.vec.extract, %66
  tail call void @rlTexCoord2f(float noundef %64, float noundef %67) #16
  %68 = fadd float %34, %.090104
  %69 = fmul float %68, 0x3F91DF46A0000000
  %70 = tail call float @cosf(float noundef %69) #16
  %71 = tail call float @llvm.fmuladd.f32(float %70, float %.088, float %.sroa.074.0.vec.extract)
  %72 = tail call float @sinf(float noundef %69) #16
  %73 = tail call float @llvm.fmuladd.f32(float %72, float %.088, float %.sroa.074.4.vec.extract)
  tail call void @rlVertex2f(float noundef %71, float noundef %73) #16
  %74 = load i32, ptr getelementptr inbounds nuw (i8, ptr @texShapes, i64 4), align 4
  %75 = sitofp i32 %74 to float
  %76 = fdiv float %39, %75
  %77 = load i32, ptr getelementptr inbounds nuw (i8, ptr @texShapes, i64 8), align 4
  %78 = sitofp i32 %77 to float
  %79 = fdiv float %37, %78
  tail call void @rlTexCoord2f(float noundef %76, float noundef %79) #16
  %80 = tail call float @cosf(float noundef %69) #16
  %81 = tail call float @llvm.fmuladd.f32(float %80, float %.089, float %.sroa.074.0.vec.extract)
  %82 = tail call float @sinf(float noundef %69) #16
  %83 = tail call float @llvm.fmuladd.f32(float %82, float %.089, float %.sroa.074.4.vec.extract)
  tail call void @rlVertex2f(float noundef %81, float noundef %83) #16
  %84 = add nuw nsw i32 %.0105, 1
  %exitcond.not = icmp eq i32 %84, %.093
  br i1 %exitcond.not, label %._crit_edge, label %40

85:                                               ; preds = %31, %._crit_edge, %7
  ret void
}